target datalayout = "e-m:e-p270:32:32-p271:32:32-p272:64:64-i64:64-i128:128-f80:128-n8:16:32:64-S128"
target triple = "x86_64-pc-linux-gnu"

; Function Attrs: nounwind uwtable
define internal i64 @cookie_hash_domain(ptr noundef %0, i64 noundef %1) #0 {
  %3 = alloca ptr, align 8
  %4 = alloca i64, align 8
  %5 = alloca ptr, align 8
  %6 = alloca i64, align 8
  %7 = alloca i64, align 8
  store ptr %0, ptr %3, align 8, !tbaa !88
  store i64 %1, ptr %4, align 8, !tbaa !111
  call void @llvm.lifetime.start.p0(i64 8, ptr %5) #6
  %8 = load ptr, ptr %3, align 8, !tbaa !88
  %9 = load i64, ptr %4, align 8, !tbaa !111
  %10 = getelementptr inbounds nuw i8, ptr %8, i64 %9
  store ptr %10, ptr %5, align 8, !tbaa !88
  call void @llvm.lifetime.start.p0(i64 8, ptr %6) #6
  store i64 5381, ptr %6, align 8, !tbaa !111
  br label %11

11:                                               ; preds = %15, %2
  %12 = load ptr, ptr %3, align 8, !tbaa !88
  %13 = load ptr, ptr %5, align 8, !tbaa !88
  %14 = icmp ult ptr %12, %13
  br i1 %14, label %15, label %28

15:                                               ; preds = %11
  call void @llvm.lifetime.start.p0(i64 8, ptr %7) #6
  %16 = load ptr, ptr %3, align 8, !tbaa !88
  %17 = getelementptr inbounds nuw i8, ptr %16, i32 1
  store ptr %17, ptr %3, align 8, !tbaa !88
  %18 = load i8, ptr %16, align 1, !tbaa !99
  %19 = call signext i8 @Curl_raw_toupper(i8 noundef signext %18)
  %20 = sext i8 %19 to i64
  store i64 %20, ptr %7, align 8, !tbaa !111
  %21 = load i64, ptr %6, align 8, !tbaa !111
  %22 = shl i64 %21, 5
  %23 = load i64, ptr %6, align 8, !tbaa !111
  %24 = add i64 %23, %22
  store i64 %24, ptr %6, align 8, !tbaa !111
  %25 = load i64, ptr %7, align 8, !tbaa !111
  %26 = load i64, ptr %6, align 8, !tbaa !111
  %27 = xor i64 %26, %25
  store i64 %27, ptr %6, align 8, !tbaa !111
  call void @llvm.lifetime.end.p0(i64 8, ptr %7) #6
  br label %11, !llvm.loop !156

28:                                               ; preds = %11
  %29 = load i64, ptr %6, align 8, !tbaa !111
  %30 = urem i64 %29, 63
  call void @llvm.lifetime.end.p0(i64 8, ptr %6) #6
  call void @llvm.lifetime.end.p0(i64 8, ptr %5) #6
  ret i64 %30
}

; Function Attrs: nounwind uwtable
define internal ptr @get_top_domain(ptr noundef %0, ptr noundef %1) #0 {
  %3 = alloca ptr, align 8
  %4 = alloca ptr, align 8
  %5 = alloca i64, align 8
  %6 = alloca ptr, align 8
  %7 = alloca ptr, align 8
  store ptr %0, ptr %3, align 8, !tbaa !88
  store ptr %1, ptr %4, align 8, !tbaa !154
  call void @llvm.lifetime.start.p0(i64 8, ptr %5) #6
  store i64 0, ptr %5, align 8, !tbaa !111
  call void @llvm.lifetime.start.p0(i64 8, ptr %6) #6
  store ptr null, ptr %6, align 8, !tbaa !88
  call void @llvm.lifetime.start.p0(i64 8, ptr %7) #6
  %8 = load ptr, ptr %3, align 8, !tbaa !88
  %9 = icmp ne ptr %8, null
  br i1 %9, label %10, label %39

10:                                               ; preds = %2
  %11 = load ptr, ptr %3, align 8, !tbaa !88
  %12 = call i64 @strlen(ptr noundef %11) #7
  store i64 %12, ptr %5, align 8, !tbaa !111
  %13 = load ptr, ptr %3, align 8, !tbaa !88
  %14 = load i64, ptr %5, align 8, !tbaa !111
  %15 = call ptr @memrchr(ptr noundef %13, i32 noundef 46, i64 noundef %14) #7
  store ptr %15, ptr %7, align 8, !tbaa !88
  %16 = load ptr, ptr %7, align 8, !tbaa !88
  %17 = icmp ne ptr %16, null
  br i1 %17, label %18, label %38

18:                                               ; preds = %10
  %19 = load ptr, ptr %3, align 8, !tbaa !88
  %20 = load ptr, ptr %7, align 8, !tbaa !88
  %21 = load ptr, ptr %3, align 8, !tbaa !88
  %22 = ptrtoint ptr %20 to i64
  %23 = ptrtoint ptr %21 to i64
  %24 = sub i64 %22, %23
  %25 = call ptr @memrchr(ptr noundef %19, i32 noundef 46, i64 noundef %24) #7
  store ptr %25, ptr %6, align 8, !tbaa !88
  %26 = load ptr, ptr %6, align 8, !tbaa !88
  %27 = icmp ne ptr %26, null
  br i1 %27, label %28, label %37

28:                                               ; preds = %18
  %29 = load ptr, ptr %6, align 8, !tbaa !88
  %30 = getelementptr inbounds nuw i8, ptr %29, i32 1
  store ptr %30, ptr %6, align 8, !tbaa !88
  %31 = load ptr, ptr %3, align 8, !tbaa !88
  %32 = ptrtoint ptr %30 to i64
  %33 = ptrtoint ptr %31 to i64
  %34 = sub i64 %32, %33
  %35 = load i64, ptr %5, align 8, !tbaa !111
  %36 = sub i64 %35, %34
  store i64 %36, ptr %5, align 8, !tbaa !111
  br label %37

37:                                               ; preds = %28, %18
  br label %38

38:                                               ; preds = %37, %10
  br label %39

39:                                               ; preds = %38, %2
  %40 = load ptr, ptr %4, align 8, !tbaa !154
  %41 = icmp ne ptr %40, null
  br i1 %41, label %42, label %45

42:                                               ; preds = %39
  %43 = load i64, ptr %5, align 8, !tbaa !111
  %44 = load ptr, ptr %4, align 8, !tbaa !154
  store i64 %43, ptr %44, align 8, !tbaa !111
  br label %45

45:                                               ; preds = %42, %39
  %46 = load ptr, ptr %6, align 8, !tbaa !88
  %47 = icmp ne ptr %46, null
  br i1 %47, label %48, label %50

48:                                               ; preds = %45
  %49 = load ptr, ptr %6, align 8, !tbaa !88
  br label %52

50:                                               ; preds = %45
  %51 = load ptr, ptr %3, align 8, !tbaa !88
  br label %52

52:                                               ; preds = %50, %48
  %53 = phi ptr [ %49, %48 ], [ %51, %50 ]
  call void @llvm.lifetime.end.p0(i64 8, ptr %7) #6
  call void @llvm.lifetime.end.p0(i64 8, ptr %6) #6
  call void @llvm.lifetime.end.p0(i64 8, ptr %5) #6
  ret ptr %53
}

; Function Attrs: nounwind uwtable
define internal i64 @cookiehash(ptr noundef %0) #0 {
  %2 = alloca i64, align 8
  %3 = alloca ptr, align 8
  %4 = alloca ptr, align 8
  %5 = alloca i64, align 8
  %6 = alloca i32, align 4
  store ptr %0, ptr %3, align 8, !tbaa !88
  call void @llvm.lifetime.start.p0(i64 8, ptr %4) #6
  call void @llvm.lifetime.start.p0(i64 8, ptr %5) #6
  %7 = load ptr, ptr %3, align 8, !tbaa !88
  %8 = icmp ne ptr %7, null
  br i1 %8, label %9, label %12

9:                                                ; preds = %1
  %10 = load ptr, ptr %3, align 8, !tbaa !88
  %11 = call zeroext i1 @Curl_host_is_ipnum(ptr noundef %10)
  br i1 %11, label %12, label %13

12:                                               ; preds = %9, %1
  store i64 0, ptr %2, align 8
  store i32 1, ptr %6, align 4
  br label %19

13:                                               ; preds = %9
  %14 = load ptr, ptr %3, align 8, !tbaa !88
  %15 = call ptr @get_top_domain(ptr noundef %14, ptr noundef %5)
  store ptr %15, ptr %4, align 8, !tbaa !88
  %16 = load ptr, ptr %4, align 8, !tbaa !88
  %17 = load i64, ptr %5, align 8, !tbaa !111
  %18 = call i64 @cookie_hash_domain(ptr noundef %16, i64 noundef %17)
  store i64 %18, ptr %2, align 8
  store i32 1, ptr %6, align 4
  br label %19

19:                                               ; preds = %13, %12
  call void @llvm.lifetime.end.p0(i64 8, ptr %5) #6
  call void @llvm.lifetime.end.p0(i64 8, ptr %4) #6
  %20 = load i64, ptr %2, align 8
  ret i64 %20
}